target datalayout = "e-m:e-p270:32:32-p271:32:32-p272:64:64-i64:64-i128:128-f80:128-n8:16:32:64-S128"
target triple = "x86_64-pc-linux-gnu"

%struct.FunctionCallInfoBaseData = type { ptr, ptr, ptr, i32, i8, i16, [0 x %struct.NullableDatum] }
%struct.NullableDatum = type { i64, i8 }
%struct.macaddr = type { i8, i8, i8, i8, i8, i8 }

; Function Attrs: inlinehint nounwind uwtable
define internal i64 @PointerGetDatum(ptr noundef %0) #2 {
  %2 = alloca ptr, align 8
  store ptr %0, ptr %2, align 8
  %3 = load ptr, ptr %2, align 8
  %4 = ptrtoint ptr %3 to i64
  ret i64 %4
}

; Function Attrs: inlinehint nounwind uwtable
define internal i64 @MacaddrPGetDatum(ptr noundef %0) #2 {
  %2 = alloca ptr, align 8
  store ptr %0, ptr %2, align 8
  %3 = load ptr, ptr %2, align 8
  %4 = call i64 @PointerGetDatum(ptr noundef %3)
  ret i64 %4
}

; Function Attrs: inlinehint nounwind uwtable
define internal ptr @DatumGetPointer(i64 noundef %0) #2 {
  %2 = alloca i64, align 8
  store i64 %0, ptr %2, align 8
  %3 = load i64, ptr %2, align 8
  %4 = inttoptr i64 %3 to ptr
  ret ptr %4
}

; Function Attrs: nounwind uwtable
define dso_local i64 @macaddr_recv(ptr noundef %0) #0 {
  %2 = alloca ptr, align 8
  %3 = alloca ptr, align 8
  %4 = alloca ptr, align 8
  store ptr %0, ptr %2, align 8
  call void @llvm.lifetime.start.p0(i64 8, ptr %3) #9
  %5 = load ptr, ptr %2, align 8
  %6 = getelementptr inbounds nuw %struct.FunctionCallInfoBaseData, ptr %5, i32 0, i32 6
  %7 = getelementptr inbounds [0 x %struct.NullableDatum], ptr %6, i64 0, i64 0
  %8 = getelementptr inbounds nuw %struct.NullableDatum, ptr %7, i32 0, i32 0
  %9 = load i64, ptr %8, align 8
  %10 = call ptr @DatumGetPointer(i64 noundef %9)
  store ptr %10, ptr %3, align 8
  call void @llvm.lifetime.start.p0(i64 8, ptr %4) #9
  %11 = call ptr @palloc(i64 noundef 6)
  store ptr %11, ptr %4, align 8
  %12 = load ptr, ptr %3, align 8
  %13 = call i32 @pq_getmsgbyte(ptr noundef %12)
  %14 = trunc i32 %13 to i8
  %15 = load ptr, ptr %4, align 8
  %16 = getelementptr inbounds nuw %struct.macaddr, ptr %15, i32 0, i32 0
  store i8 %14, ptr %16, align 1
  %17 = load ptr, ptr %3, align 8
  %18 = call i32 @pq_getmsgbyte(ptr noundef %17)
  %19 = trunc i32 %18 to i8
  %20 = load ptr, ptr %4, align 8
  %21 = getelementptr inbounds nuw %struct.macaddr, ptr %20, i32 0, i32 1
  store i8 %19, ptr %21, align 1
  %22 = load ptr, ptr %3, align 8
  %23 = call i32 @pq_getmsgbyte(ptr noundef %22)
  %24 = trunc i32 %23 to i8
  %25 = load ptr, ptr %4, align 8
  %26 = getelementptr inbounds nuw %struct.macaddr, ptr %25, i32 0, i32 2
  store i8 %24, ptr %26, align 1
  %27 = load ptr, ptr %3, align 8
  %28 = call i32 @pq_getmsgbyte(ptr noundef %27)
  %29 = trunc i32 %28 to i8
  %30 = load ptr, ptr %4, align 8
  %31 = getelementptr inbounds nuw %struct.macaddr, ptr %30, i32 0, i32 3
  store i8 %29, ptr %31, align 1
  %32 = load ptr, ptr %3, align 8
  %33 = call i32 @pq_getmsgbyte(ptr noundef %32)
  %34 = trunc i32 %33 to i8
  %35 = load ptr, ptr %4, align 8
  %36 = getelementptr inbounds nuw %struct.macaddr, ptr %35, i32 0, i32 4
  store i8 %34, ptr %36, align 1
  %37 = load ptr, ptr %3, align 8
  %38 = call i32 @pq_getmsgbyte(ptr noundef %37)
  %39 = trunc i32 %38 to i8
  %40 = load ptr, ptr %4, align 8
  %41 = getelementptr inbounds nuw %struct.macaddr, ptr %40, i32 0, i32 5
  store i8 %39, ptr %41, align 1
  %42 = load ptr, ptr %4, align 8
  %43 = call i64 @MacaddrPGetDatum(ptr noundef %42)
  call void @llvm.lifetime.end.p0(i64 8, ptr %4) #9
  call void @llvm.lifetime.end.p0(i64 8, ptr %3) #9
  ret i64 %43
}