; Function Attrs: nounwind uwtable
define dso_local i64 @macaddr_recv(ptr noundef readonly captures(none) %0) local_unnamed_addr #0 {
  %2 = getelementptr inbounds nuw i8, ptr %0, i64 32
  %3 = load i64, ptr %2, align 8
  %4 = inttoptr i64 %3 to ptr
  %5 = tail call ptr @palloc(i64 noundef 6) #7
  %6 = tail call i32 @pq_getmsgbyte(ptr noundef %4) #7
  %7 = trunc i32 %6 to i8
  store i8 %7, ptr %5, align 1
  %8 = tail call i32 @pq_getmsgbyte(ptr noundef %4) #7
  %9 = trunc i32 %8 to i8
  %10 = getelementptr inbounds nuw i8, ptr %5, i64 1
  store i8 %9, ptr %10, align 1
  %11 = tail call i32 @pq_getmsgbyte(ptr noundef %4) #7
  %12 = trunc i32 %11 to i8
  %13 = getelementptr inbounds nuw i8, ptr %5, i64 2
  store i8 %12, ptr %13, align 1
  %14 = tail call i32 @pq_getmsgbyte(ptr noundef %4) #7
  %15 = trunc i32 %14 to i8
  %16 = getelementptr inbounds nuw i8, ptr %5, i64 3
  store i8 %15, ptr %16, align 1
  %17 = tail call i32 @pq_getmsgbyte(ptr noundef %4) #7
  %18 = trunc i32 %17 to i8
  %19 = getelementptr inbounds nuw i8, ptr %5, i64 4
  store i8 %18, ptr %19, align 1
  %20 = tail call i32 @pq_getmsgbyte(ptr noundef %4) #7
  %21 = trunc i32 %20 to i8
  %22 = getelementptr inbounds nuw i8, ptr %5, i64 5
  store i8 %21, ptr %22, align 1
  %23 = ptrtoint ptr %5 to i64
  ret i64 %23
}